; Function Attrs: mustprogress uwtable
define dso_local range(i32 0, 2) i32 @stbi_write_jpg(ptr noundef readonly captures(none) %0, i32 noundef %1, i32 noundef %2, i32 noundef %3, ptr noundef %4, i32 noundef %5) local_unnamed_addr #4 {
  %7 = alloca %struct.stbi__write_context, align 8
  call void @llvm.lifetime.start.p0(i64 88, ptr nonnull %7) #35
  %8 = getelementptr inbounds nuw i8, ptr %7, i64 16
  call void @llvm.memset.p0.i64(ptr noundef nonnull align 8 dereferenceable(72) %8, i8 0, i64 72, i1 false)
  %9 = tail call noalias noundef ptr @fopen(ptr noundef readonly %0, ptr noundef nonnull @.str.84)
  store ptr @_ZL17stbi__stdio_writePvS_i, ptr %7, align 8, !tbaa !311
  %10 = getelementptr inbounds nuw i8, ptr %7, i64 8
  store ptr %9, ptr %10, align 8, !tbaa !313
  %.not7 = icmp eq ptr %9, null
  br i1 %.not7, label %14, label %11

11:                                               ; preds = %6
  %12 = call fastcc noundef i32 @_ZL19stbi_write_jpg_coreP19stbi__write_contextiiiPKvi(ptr noundef %7, i32 noundef %1, i32 noundef %2, i32 noundef %3, ptr noundef %4, i32 noundef %5)
  %13 = tail call i32 @fclose(ptr noundef nonnull %9)
  br label %14

14:                                               ; preds = %6, %11
  %.0 = phi i32 [ %12, %11 ], [ 0, %6 ]
  call void @llvm.lifetime.end.p0(i64 88, ptr nonnull %7) #35
  ret i32 %.0
}